; ModuleID = '35/493.c'
source_filename = "35/493.c"
target datalayout = "e-m:e-p270:32:32-p271:32:32-p272:64:64-i64:64-f80:128-n8:16:32:64-S128"
target triple = "x86_64-pc-linux-gnu"

@.str = private unnamed_addr constant [6 x i8] c"%d,%d\00", align 1
@.str.1 = private unnamed_addr constant [3 x i8] c"%d\00", align 1
@.str.2 = private unnamed_addr constant [6 x i8] c"%d+%d\00", align 1
@.str.3 = private unnamed_addr constant [3 x i8] c"No\00", align 1

; Function Attrs: noinline nounwind uwtable
define dso_local i32 @main() #0 {
  %1 = alloca i32, align 4
  %2 = alloca i32, align 4
  %3 = alloca i32, align 4
  %4 = alloca i32, align 4
  %5 = alloca i32, align 4
  %6 = alloca i32, align 4
  %7 = alloca i32, align 4
  %8 = alloca i32, align 4
  %9 = alloca i32, align 4
  %10 = alloca [8 x [8 x i32]], align 16
  %11 = alloca i32, align 4
  store i32 0, i32* %1, align 4
  %12 = call i32 (i8*, ...) @__isoc99_scanf(i8* getelementptr inbounds ([6 x i8], [6 x i8]* @.str, i64 0, i64 0), i32* %2, i32* %3)
  store i32 0, i32* %4, align 4
  br label %13

13:                                               ; preds = %35, %0
  %14 = load i32, i32* %4, align 4
  %15 = load i32, i32* %2, align 4
  %16 = icmp slt i32 %14, %15
  br i1 %16, label %17, label %38

17:                                               ; preds = %13
  store i32 0, i32* %5, align 4
  br label %18

18:                                               ; preds = %31, %17
  %19 = load i32, i32* %5, align 4
  %20 = load i32, i32* %3, align 4
  %21 = icmp slt i32 %19, %20
  br i1 %21, label %22, label %34

22:                                               ; preds = %18
  %23 = call i32 (i8*, ...) @__isoc99_scanf(i8* getelementptr inbounds ([3 x i8], [3 x i8]* @.str.1, i64 0, i64 0), i32* %11)
  %24 = load i32, i32* %11, align 4
  %25 = load i32, i32* %4, align 4
  %26 = sext i32 %25 to i64
  %27 = getelementptr inbounds [8 x [8 x i32]], [8 x [8 x i32]]* %10, i64 0, i64 %26
  %28 = load i32, i32* %5, align 4
  %29 = sext i32 %28 to i64
  %30 = getelementptr inbounds [8 x i32], [8 x i32]* %27, i64 0, i64 %29
  store i32 %24, i32* %30, align 4
  br label %31

31:                                               ; preds = %22
  %32 = load i32, i32* %5, align 4
  %33 = add nsw i32 %32, 1
  store i32 %33, i32* %5, align 4
  br label %18

34:                                               ; preds = %18
  br label %35

35:                                               ; preds = %34
  %36 = load i32, i32* %4, align 4
  %37 = add nsw i32 %36, 1
  store i32 %37, i32* %4, align 4
  br label %13

38:                                               ; preds = %13
  store i32 0, i32* %4, align 4
  br label %39

39:                                               ; preds = %105, %38
  %40 = load i32, i32* %4, align 4
  %41 = load i32, i32* %2, align 4
  %42 = icmp slt i32 %40, %41
  br i1 %42, label %43, label %108

43:                                               ; preds = %39
  %44 = load i32, i32* %4, align 4
  store i32 %44, i32* %6, align 4
  store i32 0, i32* %7, align 4
  store i32 1, i32* %5, align 4
  br label %45

45:                                               ; preds = %68, %43
  %46 = load i32, i32* %5, align 4
  %47 = load i32, i32* %3, align 4
  %48 = icmp slt i32 %46, %47
  br i1 %48, label %49, label %71

49:                                               ; preds = %45
  %50 = load i32, i32* %6, align 4
  %51 = sext i32 %50 to i64
  %52 = getelementptr inbounds [8 x [8 x i32]], [8 x [8 x i32]]* %10, i64 0, i64 %51
  %53 = load i32, i32* %7, align 4
  %54 = sext i32 %53 to i64
  %55 = getelementptr inbounds [8 x i32], [8 x i32]* %52, i64 0, i64 %54
  %56 = load i32, i32* %55, align 4
  %57 = load i32, i32* %4, align 4
  %58 = sext i32 %57 to i64
  %59 = getelementptr inbounds [8 x [8 x i32]], [8 x [8 x i32]]* %10, i64 0, i64 %58
  %60 = load i32, i32* %5, align 4
  %61 = sext i32 %60 to i64
  %62 = getelementptr inbounds [8 x i32], [8 x i32]* %59, i64 0, i64 %61
  %63 = load i32, i32* %62, align 4
  %64 = icmp slt i32 %56, %63
  br i1 %64, label %65, label %67

65:                                               ; preds = %49
  %66 = load i32, i32* %5, align 4
  store i32 %66, i32* %7, align 4
  br label %67

67:                                               ; preds = %65, %49
  br label %68

68:                                               ; preds = %67
  %69 = load i32, i32* %5, align 4
  %70 = add nsw i32 %69, 1
  store i32 %70, i32* %5, align 4
  br label %45

71:                                               ; preds = %45
  store i32 0, i32* %8, align 4
  store i32 0, i32* %9, align 4
  br label %72

72:                                               ; preds = %96, %71
  %73 = load i32, i32* %9, align 4
  %74 = load i32, i32* %2, align 4
  %75 = icmp slt i32 %73, %74
  br i1 %75, label %76, label %99

76:                                               ; preds = %72
  %77 = load i32, i32* %6, align 4
  %78 = sext i32 %77 to i64
  %79 = getelementptr inbounds [8 x [8 x i32]], [8 x [8 x i32]]* %10, i64 0, i64 %78
  %80 = load i32, i32* %7, align 4
  %81 = sext i32 %80 to i64
  %82 = getelementptr inbounds [8 x i32], [8 x i32]* %79, i64 0, i64 %81
  %83 = load i32, i32* %82, align 4
  %84 = load i32, i32* %9, align 4
  %85 = sext i32 %84 to i64
  %86 = getelementptr inbounds [8 x [8 x i32]], [8 x [8 x i32]]* %10, i64 0, i64 %85
  %87 = load i32, i32* %7, align 4
  %88 = sext i32 %87 to i64
  %89 = getelementptr inbounds [8 x i32], [8 x i32]* %86, i64 0, i64 %88
  %90 = load i32, i32* %89, align 4
  %91 = icmp sle i32 %83, %90
  br i1 %91, label %92, label %95

92:                                               ; preds = %76
  %93 = load i32, i32* %8, align 4
  %94 = add nsw i32 %93, 1
  store i32 %94, i32* %8, align 4
  br label %95

95:                                               ; preds = %92, %76
  br label %96

96:                                               ; preds = %95
  %97 = load i32, i32* %9, align 4
  %98 = add nsw i32 %97, 1
  store i32 %98, i32* %9, align 4
  br label %72

99:                                               ; preds = %72
  %100 = load i32, i32* %8, align 4
  %101 = load i32, i32* %2, align 4
  %102 = icmp eq i32 %100, %101
  br i1 %102, label %103, label %104

103:                                              ; preds = %99
  br label %108

104:                                              ; preds = %99
  br label %105

105:                                              ; preds = %104
  %106 = load i32, i32* %4, align 4
  %107 = add nsw i32 %106, 1
  store i32 %107, i32* %4, align 4
  br label %39

108:                                              ; preds = %103, %39
  %109 = load i32, i32* %8, align 4
  %110 = load i32, i32* %2, align 4
  %111 = icmp eq i32 %109, %110
  br i1 %111, label %112, label %116

112:                                              ; preds = %108
  %113 = load i32, i32* %6, align 4
  %114 = load i32, i32* %7, align 4
  %115 = call i32 (i8*, ...) @printf(i8* getelementptr inbounds ([6 x i8], [6 x i8]* @.str.2, i64 0, i64 0), i32 %113, i32 %114)
  br label %118

116:                                              ; preds = %108
  %117 = call i32 (i8*, ...) @printf(i8* getelementptr inbounds ([3 x i8], [3 x i8]* @.str.3, i64 0, i64 0))
  br label %118

118:                                              ; preds = %116, %112
  ret i32 0
}

declare dso_local i32 @__isoc99_scanf(i8*, ...) #1

declare dso_local i32 @printf(i8*, ...) #1


!llvm.module.flags = !{!0}
!llvm.ident = !{!1}

!0 = !{i32 1, !"wchar_size", i32 4}
!1 = !{!"clang version 10.0.0-4ubuntu1 "}
